///////////////////////////////////////////////////////////////////////////////
//                                                                            /
// IAR C/C++ Compiler V8.20.2.41139 for 8051            03/Apr/2014  10:45:49 /
// Copyright 2004-2013 IAR Systems AB.                                        /
//                                                                            /
//    Core               =  plain                                             /
//    Code model         =  banked                                            /
//    Data model         =  large                                             /
//    Calling convention =  xdata reentrant                                   /
//    Constant location  =  data                                              /
//    Dptr setup         =  1,16                                              /
//                                                                            /
//    Source file        =  D:\myWork\myWork\core\lib\memb.c                  /
//    Command line       =  D:\myWork\myWork\core\lib\memb.c -D               /
//                          AUTOSTART_ENABLE -D PROJECT_CONF_H -lC            /
//                          D:\myWork\myWork\examples\wsn2530dk\myProject\coo /
//                          rd\List\ -lA D:\myWork\myWork\examples\wsn2530dk\ /
//                          myProject\coord\List\ --diag_suppress             /
//                          Pa050,Pa082,Pe550 --diag_warning Pe144 -o         /
//                          D:\myWork\myWork\examples\wsn2530dk\myProject\coo /
//                          rd\Obj\ -e --no_cse --no_unroll --no_inline       /
//                          --no_code_motion --no_tbaa --debug --core=plain   /
//                          --dptr=16,1 --data_model=large                    /
//                          --code_model=banked --calling_convention=xdata_re /
//                          entrant --place_constants=data --nr_virtual_regs  /
//                          16 --preinclude D:\myWork\myWork\examples\wsn2530 /
//                          dk\myProject\..\..\..\cpu\cc253x\cc253x.h -I      /
//                          D:\myWork\myWork\examples\wsn2530dk\myProject\..\ /
//                          ..\..\cpu\cc253x\ -I D:\myWork\myWork\examples\ws /
//                          n2530dk\myProject\..\..\..\platform\wsn2530dk\    /
//                          -I D:\myWork\myWork\examples\wsn2530dk\myProject\ /
//                          ..\..\..\core\ -I D:\myWork\myWork\examples\wsn25 /
//                          30dk\myProject\..\..\..\apps\ -I                  /
//                          D:\myWork\myWork\examples\wsn2530dk\myProject\    /
//                          -Ol                                               /
//    List file          =  D:\myWork\myWork\examples\wsn2530dk\myProject\coo /
//                          rd\List\memb.s51                                  /
//                                                                            /
//                                                                            /
///////////////////////////////////////////////////////////////////////////////

        NAME memb

        RTMODEL "__SystemLibrary", "CLib"
        RTMODEL "__calling_convention", "xdata_reentrant"
        RTMODEL "__code_model", "banked"
        RTMODEL "__core", "plain"
        RTMODEL "__data_model", "large"
        RTMODEL "__dptr_size", "16"
        RTMODEL "__extended_stack", "disabled"
        RTMODEL "__location_for_constants", "data"
        RTMODEL "__number_of_dptrs", "1"
        RTMODEL "__rt_version", "1"

        RSEG DOVERLAY:DATA:NOROOT(0)
        RSEG IOVERLAY:IDATA:NOROOT(0)
        RSEG ISTACK:IDATA:NOROOT(0)
        RSEG PSTACK:XDATA:NOROOT(0)
        RSEG XSTACK:XDATA:NOROOT(0)

        EXTERN ?BANKED_ENTER_XDATA
        EXTERN ?BANKED_LEAVE_XDATA
        EXTERN ?BDISPATCH
        EXTERN ?DEALLOC_XSTACK8
        EXTERN ?PUSH_XSTACK8_X_TWO
        EXTERN ?PUSH_XSTACK_I_TWO
        EXTERN ?V0

        PUBLIC ??memb_alloc?relay
        FUNCTION ??memb_alloc?relay,0203H
        PUBLIC ??memb_free?relay
        FUNCTION ??memb_free?relay,0203H
        PUBLIC ??memb_init?relay
        FUNCTION ??memb_init?relay,0203H
        PUBLIC ??memb_inmemb?relay
        FUNCTION ??memb_inmemb?relay,0203H
        PUBLIC memb_alloc
        FUNCTION memb_alloc,0203H
        ARGFRAME XSTACK, 0, STACK
        LOCFRAME XSTACK, 10, STACK
        PUBLIC memb_free
        FUNCTION memb_free,0203H
        ARGFRAME XSTACK, 0, STACK
        LOCFRAME XSTACK, 10, STACK
        PUBLIC memb_init
        FUNCTION memb_init,021203H
        ARGFRAME XSTACK, 0, STACK
        LOCFRAME XSTACK, 14, STACK
        PUBLIC memb_inmemb
        FUNCTION memb_inmemb,0203H
        ARGFRAME XSTACK, 0, STACK
        LOCFRAME XSTACK, 10, STACK
        
          CFI Names cfiNames0
          CFI StackFrame CFA_SP SP IDATA
          CFI StackFrame CFA_PSP16 PSP16 XDATA
          CFI StackFrame CFA_XSP16 XSP16 XDATA
          CFI StaticOverlayFrame CFA_IOVERLAY IOVERLAY
          CFI StaticOverlayFrame CFA_DOVERLAY DOVERLAY
          CFI Resource `PSW.CY`:1, `B.BR0`:1, `B.BR1`:1, `B.BR2`:1, `B.BR3`:1
          CFI Resource `B.BR4`:1, `B.BR5`:1, `B.BR6`:1, `B.BR7`:1, `VB.BR8`:1
          CFI Resource `VB.BR9`:1, `VB.BR10`:1, `VB.BR11`:1, `VB.BR12`:1
          CFI Resource `VB.BR13`:1, `VB.BR14`:1, `VB.BR15`:1, VB:8, B:8, A:8
          CFI Resource PSW:8, DPL0:8, DPH0:8, R0:8, R1:8, R2:8, R3:8, R4:8, R5:8
          CFI Resource R6:8, R7:8, V0:8, V1:8, V2:8, V3:8, V4:8, V5:8, V6:8, V7:8
          CFI Resource V8:8, V9:8, V10:8, V11:8, V12:8, V13:8, V14:8, V15:8, SP:8
          CFI Resource PSPH:8, PSPL:8, PSP16:16, XSPH:8, XSPL:8, XSP16:16
          CFI VirtualResource ?RET:24
          CFI Resource ?BRET_EXT:8
          CFI VirtualResource ?RET_HIGH:8, ?RET_LOW:8
          CFI ResourceParts PSP16 PSPH, PSPL
          CFI ResourceParts XSP16 XSPH, XSPL
          CFI ResourceParts ?RET ?BRET_EXT, ?RET_HIGH, ?RET_LOW
          CFI EndNames cfiNames0
        
          CFI Common cfiCommon0 Using cfiNames0
          CFI CodeAlign 1
          CFI DataAlign -1
          CFI ReturnAddress ?RET CODE
          CFI CFA_DOVERLAY Used
          CFI CFA_IOVERLAY Used
          CFI CFA_SP SP+-3
          CFI CFA_PSP16 PSP16+0
          CFI CFA_XSP16 XSP16+0
          CFI `PSW.CY` SameValue
          CFI `B.BR0` SameValue
          CFI `B.BR1` SameValue
          CFI `B.BR2` SameValue
          CFI `B.BR3` SameValue
          CFI `B.BR4` SameValue
          CFI `B.BR5` SameValue
          CFI `B.BR6` SameValue
          CFI `B.BR7` SameValue
          CFI `VB.BR8` SameValue
          CFI `VB.BR9` SameValue
          CFI `VB.BR10` SameValue
          CFI `VB.BR11` SameValue
          CFI `VB.BR12` SameValue
          CFI `VB.BR13` SameValue
          CFI `VB.BR14` SameValue
          CFI `VB.BR15` SameValue
          CFI VB SameValue
          CFI B Undefined
          CFI A Undefined
          CFI PSW SameValue
          CFI DPL0 SameValue
          CFI DPH0 SameValue
          CFI R0 Undefined
          CFI R1 Undefined
          CFI R2 Undefined
          CFI R3 Undefined
          CFI R4 Undefined
          CFI R5 Undefined
          CFI R6 SameValue
          CFI R7 SameValue
          CFI V0 SameValue
          CFI V1 SameValue
          CFI V2 SameValue
          CFI V3 SameValue
          CFI V4 SameValue
          CFI V5 SameValue
          CFI V6 SameValue
          CFI V7 SameValue
          CFI V8 SameValue
          CFI V9 SameValue
          CFI V10 SameValue
          CFI V11 SameValue
          CFI V12 SameValue
          CFI V13 SameValue
          CFI V14 SameValue
          CFI V15 SameValue
          CFI PSPH Undefined
          CFI PSPL Undefined
          CFI XSPH Undefined
          CFI XSPL Undefined
          CFI ?RET Concat
          CFI ?BRET_EXT Frame(CFA_SP, 3)
          CFI ?RET_HIGH Frame(CFA_SP, 2)
          CFI ?RET_LOW Frame(CFA_SP, 1)
          CFI EndCommon cfiCommon0
        
memset              SYMBOL "memset"
??memset?relay      SYMBOL "?relay", memset
memb_alloc          SYMBOL "memb_alloc"
??memb_alloc?relay  SYMBOL "?relay", memb_alloc
memb_free           SYMBOL "memb_free"
??memb_free?relay   SYMBOL "?relay", memb_free
memb_init           SYMBOL "memb_init"
??memb_init?relay   SYMBOL "?relay", memb_init
memb_inmemb         SYMBOL "memb_inmemb"
??memb_inmemb?relay SYMBOL "?relay", memb_inmemb

        EXTERN ??memset?relay
        FUNCTION ??memset?relay,00H
        EXTERN memset
        FUNCTION memset,010202H
        ARGFRAME ISTACK, 0, STACK
        ARGFRAME PSTACK, 0, STACK
        ARGFRAME XSTACK, 14, STACK
        ARGFRAME IOVERLAY, 0, STATIC
        ARGFRAME DOVERLAY, 0, STATIC

// D:\myWork\myWork\core\lib\memb.c
//    1 /*
//    2  * Copyright (c) 2004, Swedish Institute of Computer Science.
//    3  * All rights reserved.
//    4  *
//    5  * Redistribution and use in source and binary forms, with or without
//    6  * modification, are permitted provided that the following conditions
//    7  * are met:
//    8  * 1. Redistributions of source code must retain the above copyright
//    9  *    notice, this list of conditions and the following disclaimer.
//   10  * 2. Redistributions in binary form must reproduce the above copyright
//   11  *    notice, this list of conditions and the following disclaimer in the
//   12  *    documentation and/or other materials provided with the distribution.
//   13  * 3. Neither the name of the Institute nor the names of its contributors
//   14  *    may be used to endorse or promote products derived from this software
//   15  *    without specific prior written permission.
//   16  *
//   17  * THIS SOFTWARE IS PROVIDED BY THE INSTITUTE AND CONTRIBUTORS ``AS IS'' AND
//   18  * ANY EXPRESS OR IMPLIED WARRANTIES, INCLUDING, BUT NOT LIMITED TO, THE
//   19  * IMPLIED WARRANTIES OF MERCHANTABILITY AND FITNESS FOR A PARTICULAR PURPOSE
//   20  * ARE DISCLAIMED.  IN NO EVENT SHALL THE INSTITUTE OR CONTRIBUTORS BE LIABLE
//   21  * FOR ANY DIRECT, INDIRECT, INCIDENTAL, SPECIAL, EXEMPLARY, OR CONSEQUENTIAL
//   22  * DAMAGES (INCLUDING, BUT NOT LIMITED TO, PROCUREMENT OF SUBSTITUTE GOODS
//   23  * OR SERVICES; LOSS OF USE, DATA, OR PROFITS; OR BUSINESS INTERRUPTION)
//   24  * HOWEVER CAUSED AND ON ANY THEORY OF LIABILITY, WHETHER IN CONTRACT, STRICT
//   25  * LIABILITY, OR TORT (INCLUDING NEGLIGENCE OR OTHERWISE) ARISING IN ANY WAY
//   26  * OUT OF THE USE OF THIS SOFTWARE, EVEN IF ADVISED OF THE POSSIBILITY OF
//   27  * SUCH DAMAGE.
//   28  *
//   29  * This file is part of the Contiki operating system.
//   30  *
//   31  * Author: Adam Dunkels <adam@sics.se>
//   32  *
//   33  */
//   34 
//   35 /**
//   36  * \addtogroup memb
//   37  * @{
//   38  */
//   39 
//   40  /**
//   41  * \file
//   42  * Memory block allocation routines.
//   43  * \author Adam Dunkels <adam@sics.se>
//   44  */
//   45 #include <string.h>
//   46 
//   47 #include "contiki.h"
//   48 #include "lib/memb.h"
//   49 
//   50 /*---------------------------------------------------------------------------*/

        RSEG BANKED_CODE:CODE:NOROOT(0)
//   51 void
//   52 memb_init(struct memb *m)
memb_init:
          CFI Block cfiBlock0 Using cfiCommon0
          CFI Function memb_init
        CODE
//   53 {
        FUNCALL memb_init, memset
        LOCFRAME ISTACK, 0, STACK
        LOCFRAME PSTACK, 0, STACK
        LOCFRAME XSTACK, 14, STACK
        LOCFRAME IOVERLAY, 0, STATIC
        LOCFRAME DOVERLAY, 0, STATIC
        ARGFRAME ISTACK, 0, STACK
        ARGFRAME PSTACK, 0, STACK
        ARGFRAME XSTACK, 14, STACK
        ARGFRAME IOVERLAY, 0, STATIC
        ARGFRAME DOVERLAY, 0, STATIC
        FUNCALL memb_init, memset
        LOCFRAME ISTACK, 0, STACK
        LOCFRAME PSTACK, 0, STACK
        LOCFRAME XSTACK, 14, STACK
        LOCFRAME IOVERLAY, 0, STATIC
        LOCFRAME DOVERLAY, 0, STATIC
        ARGFRAME ISTACK, 0, STACK
        ARGFRAME PSTACK, 0, STACK
        ARGFRAME XSTACK, 14, STACK
        ARGFRAME IOVERLAY, 0, STATIC
        ARGFRAME DOVERLAY, 0, STATIC
        MOV     A,#-0xc
        LCALL   ?BANKED_ENTER_XDATA
          CFI DPH0 load(1, XDATA, add(CFA_XSP16, literal(-1)))
          CFI DPL0 load(1, XDATA, add(CFA_XSP16, literal(-2)))
          CFI ?BRET_EXT load(1, XDATA, add(CFA_XSP16, literal(-3)))
          CFI ?RET_HIGH load(1, XDATA, add(CFA_XSP16, literal(-4)))
          CFI ?RET_LOW load(1, XDATA, add(CFA_XSP16, literal(-5)))
          CFI R7 load(1, XDATA, add(CFA_XSP16, literal(-6)))
          CFI V3 load(1, XDATA, add(CFA_XSP16, literal(-7)))
          CFI V2 load(1, XDATA, add(CFA_XSP16, literal(-8)))
          CFI V1 load(1, XDATA, add(CFA_XSP16, literal(-9)))
          CFI V0 load(1, XDATA, add(CFA_XSP16, literal(-10)))
          CFI VB load(1, XDATA, add(CFA_XSP16, literal(-11)))
          CFI R6 load(1, XDATA, add(CFA_XSP16, literal(-12)))
          CFI CFA_SP SP+0
          CFI CFA_XSP16 add(XSP16, 12)
        ; Saved register size: 12
        ; Auto size: 0
        MOV     A,R2
        MOV     R6,A
        MOV     A,R3
        MOV     R7,A
//   54   memset(m->count, 0, m->num);
        ; Setup parameters for call to function memset
        MOV     DPL,R6
        MOV     DPH,R7
        INC     DPTR
        INC     DPTR
        LCALL   ?PUSH_XSTACK8_X_TWO
          CFI CFA_XSP16 add(XSP16, 14)
        MOV     R4,#0x0
        MOV     R5,#0x0
        MOV     DPL,R6
        MOV     DPH,R7
        INC     DPTR
        INC     DPTR
        INC     DPTR
        INC     DPTR
        MOVX    A,@DPTR
        MOV     R2,A
        INC     DPTR
        MOVX    A,@DPTR
        MOV     R3,A
        LCALL   ??memset?relay
        MOV     A,#0x2
        LCALL   ?DEALLOC_XSTACK8
          CFI CFA_XSP16 add(XSP16, 12)
//   55   memset(m->mem, 0, m->size * m->num);
        ; Setup parameters for call to function memset
        MOV     DPL,R6
        MOV     DPH,R7
        MOVX    A,@DPTR
        MOV     ?V0 + 2,A
        INC     DPTR
        MOVX    A,@DPTR
        MOV     ?V0 + 3,A
        MOV     DPL,R6
        MOV     DPH,R7
        INC     DPTR
        INC     DPTR
        MOVX    A,@DPTR
        MOV     ?V0 + 0,A
        INC     DPTR
        MOVX    A,@DPTR
        MOV     ?V0 + 1,A
        MOV     A,?V0 + 2
        MOV     B,?V0 + 0
        MUL     AB
        XCH     A,?V0 + 2
        MOV     R0,B
        MOV     B,?V0 + 1
        MUL     AB
        ADD     A,R0
        MOV     R0,A
        MOV     B,?V0 + 0
        MOV     A,?V0 + 3
        MUL     AB
        ADD     A,R0
        MOV     ?V0 + 3,A
        MOV     R0,#?V0 + 2
        LCALL   ?PUSH_XSTACK_I_TWO
          CFI CFA_XSP16 add(XSP16, 14)
        MOV     R4,#0x0
        MOV     R5,#0x0
        MOV     DPL,R6
        MOV     DPH,R7
        INC     DPTR
        INC     DPTR
        INC     DPTR
        INC     DPTR
        INC     DPTR
        INC     DPTR
        MOVX    A,@DPTR
        MOV     R2,A
        INC     DPTR
        MOVX    A,@DPTR
        MOV     R3,A
        LCALL   ??memset?relay
        MOV     A,#0x2
        LCALL   ?DEALLOC_XSTACK8
          CFI CFA_XSP16 add(XSP16, 12)
//   56 }
        MOV     R7,#0x4
        LJMP    ?BANKED_LEAVE_XDATA
          CFI EndBlock cfiBlock0
//   57 /*---------------------------------------------------------------------------*/

        RSEG BANKED_CODE:CODE:NOROOT(0)
//   58 void *
//   59 memb_alloc(struct memb *m)
memb_alloc:
          CFI Block cfiBlock1 Using cfiCommon0
          CFI Function memb_alloc
        CODE
//   60 {
        MOV     A,#-0xa
        LCALL   ?BANKED_ENTER_XDATA
          CFI DPH0 load(1, XDATA, add(CFA_XSP16, literal(-1)))
          CFI DPL0 load(1, XDATA, add(CFA_XSP16, literal(-2)))
          CFI ?BRET_EXT load(1, XDATA, add(CFA_XSP16, literal(-3)))
          CFI ?RET_HIGH load(1, XDATA, add(CFA_XSP16, literal(-4)))
          CFI ?RET_LOW load(1, XDATA, add(CFA_XSP16, literal(-5)))
          CFI R7 load(1, XDATA, add(CFA_XSP16, literal(-6)))
          CFI V1 load(1, XDATA, add(CFA_XSP16, literal(-7)))
          CFI V0 load(1, XDATA, add(CFA_XSP16, literal(-8)))
          CFI VB load(1, XDATA, add(CFA_XSP16, literal(-9)))
          CFI R6 load(1, XDATA, add(CFA_XSP16, literal(-10)))
          CFI CFA_SP SP+0
          CFI CFA_XSP16 add(XSP16, 10)
        ; Saved register size: 10
        ; Auto size: 0
//   61   int i;
//   62 
//   63   for(i = 0; i < m->num; ++i) {
        MOV     R0,#0x0
        MOV     R1,#0x0
        SJMP    ??memb_alloc_0
??memb_alloc_1:
        MOV     A,R0
        ADD     A,#0x1
        MOV     R0,A
        MOV     A,R1
        ADDC    A,#0x0
        MOV     R1,A
??memb_alloc_0:
        MOV     DPL,R2
        MOV     DPH,R3
        INC     DPTR
        INC     DPTR
        MOVX    A,@DPTR
        MOV     R4,A
        INC     DPTR
        MOVX    A,@DPTR
        MOV     R5,A
        CLR     C
        MOV     A,R0
        SUBB    A,R4
        MOV     A,R1
        SUBB    A,R5
        JNC     ??memb_alloc_2
//   64     if(m->count[i] == 0) {
        MOV     DPL,R2
        MOV     DPH,R3
        INC     DPTR
        INC     DPTR
        INC     DPTR
        INC     DPTR
        MOVX    A,@DPTR
        ADD     A,R0
        MOV     R4,A
        INC     DPTR
        MOVX    A,@DPTR
        ADDC    A,R1
        MOV     DPL,R4
        MOV     DPH,A
        MOVX    A,@DPTR
        JNZ     ??memb_alloc_1
//   65       /* If this block was unused, we increase the reference count to
//   66 	 indicate that it now is used and return a pointer to the
//   67 	 memory block. */
//   68       ++(m->count[i]);
        MOV     DPL,R2
        MOV     DPH,R3
        INC     DPTR
        INC     DPTR
        INC     DPTR
        INC     DPTR
        MOVX    A,@DPTR
        ADD     A,R0
        MOV     R4,A
        INC     DPTR
        MOVX    A,@DPTR
        ADDC    A,R1
        MOV     DPL,R4
        MOV     DPH,A
        MOVX    A,@DPTR
        ADD     A,#0x1
        MOVX    @DPTR,A
//   69       return (void *)((char *)m->mem + (i * m->size));
        MOV     DPL,R2
        MOV     DPH,R3
        MOVX    A,@DPTR
        MOV     ?V0 + 0,A
        INC     DPTR
        MOVX    A,@DPTR
        MOV     ?V0 + 1,A
        MOV     A,R0
        MOV     B,?V0 + 0
        MUL     AB
        XCH     A,R0
        MOV     R4,B
        MOV     B,?V0 + 1
        MUL     AB
        ADD     A,R4
        MOV     R4,A
        MOV     B,?V0 + 0
        MOV     A,R1
        MUL     AB
        ADD     A,R4
        MOV     R1,A
        MOV     DPL,R2
        MOV     DPH,R3
        INC     DPTR
        INC     DPTR
        INC     DPTR
        INC     DPTR
        INC     DPTR
        INC     DPTR
        MOVX    A,@DPTR
        ADD     A,R0
        MOV     R2,A
        INC     DPTR
        MOVX    A,@DPTR
        ADDC    A,R1
        MOV     R3,A
        SJMP    ??memb_alloc_3
//   70     }
//   71   }
//   72 
//   73   /* No free block was found, so we return NULL to indicate failure to
//   74      allocate block. */
//   75   return NULL;
??memb_alloc_2:
        MOV     R2,#0x0
        MOV     R3,#0x0
??memb_alloc_3:
        MOV     R7,#0x2
        LJMP    ?BANKED_LEAVE_XDATA
          CFI EndBlock cfiBlock1
//   76 }
//   77 /*---------------------------------------------------------------------------*/

        RSEG BANKED_CODE:CODE:NOROOT(0)
//   78 char
//   79 memb_free(struct memb *m, void *ptr)
memb_free:
          CFI Block cfiBlock2 Using cfiCommon0
          CFI Function memb_free
        CODE
//   80 {
        MOV     A,#-0xa
        LCALL   ?BANKED_ENTER_XDATA
          CFI DPH0 load(1, XDATA, add(CFA_XSP16, literal(-1)))
          CFI DPL0 load(1, XDATA, add(CFA_XSP16, literal(-2)))
          CFI ?BRET_EXT load(1, XDATA, add(CFA_XSP16, literal(-3)))
          CFI ?RET_HIGH load(1, XDATA, add(CFA_XSP16, literal(-4)))
          CFI ?RET_LOW load(1, XDATA, add(CFA_XSP16, literal(-5)))
          CFI R7 load(1, XDATA, add(CFA_XSP16, literal(-6)))
          CFI V1 load(1, XDATA, add(CFA_XSP16, literal(-7)))
          CFI V0 load(1, XDATA, add(CFA_XSP16, literal(-8)))
          CFI VB load(1, XDATA, add(CFA_XSP16, literal(-9)))
          CFI R6 load(1, XDATA, add(CFA_XSP16, literal(-10)))
          CFI CFA_SP SP+0
          CFI CFA_XSP16 add(XSP16, 10)
        ; Saved register size: 10
        ; Auto size: 0
        MOV     A,R2
        MOV     R6,A
        MOV     A,R3
        MOV     R7,A
//   81   int i;
//   82   char *ptr2;
//   83 
//   84   /* Walk through the list of blocks and try to find the block to
//   85      which the pointer "ptr" points to. */
//   86   ptr2 = (char *)m->mem;
        MOV     DPL,R6
        MOV     DPH,R7
        INC     DPTR
        INC     DPTR
        INC     DPTR
        INC     DPTR
        INC     DPTR
        INC     DPTR
        MOVX    A,@DPTR
        MOV     R2,A
        INC     DPTR
        MOVX    A,@DPTR
        MOV     R3,A
//   87   for(i = 0; i < m->num; ++i) {
        MOV     R0,#0x0
        MOV     R1,#0x0
        SJMP    ??memb_free_0
//   88     
//   89     if(ptr2 == (char *)ptr) {
//   90       /* We've found to block to which "ptr" points so we decrease the
//   91 	 reference count and return the new value of it. */
//   92       if(m->count[i] > 0) {
//   93 	/* Make sure that we don't deallocate free memory. */
//   94 	--(m->count[i]);
//   95       }
//   96       return m->count[i];
//   97     }
//   98     ptr2 += m->size;
??memb_free_1:
        MOV     DPL,R6
        MOV     DPH,R7
        MOVX    A,@DPTR
        MOV     ?V0 + 0,A
        INC     DPTR
        MOVX    A,@DPTR
        MOV     ?V0 + 1,A
        MOV     A,R2
        ADD     A,?V0 + 0
        MOV     R2,A
        MOV     A,R3
        ADDC    A,?V0 + 1
        MOV     R3,A
        MOV     A,R0
        ADD     A,#0x1
        MOV     R0,A
        MOV     A,R1
        ADDC    A,#0x0
        MOV     R1,A
??memb_free_0:
        MOV     DPL,R6
        MOV     DPH,R7
        INC     DPTR
        INC     DPTR
        MOVX    A,@DPTR
        MOV     ?V0 + 0,A
        INC     DPTR
        MOVX    A,@DPTR
        MOV     ?V0 + 1,A
        CLR     C
        MOV     A,R0
        SUBB    A,?V0 + 0
        MOV     A,R1
        SUBB    A,?V0 + 1
        JNC     ??memb_free_2
        MOV     A,R4
        XRL     A,R2
        JNZ     ??memb_free_3
        MOV     A,R5
        XRL     A,R3
??memb_free_3:
        JNZ     ??memb_free_1
        MOV     DPL,R6
        MOV     DPH,R7
        INC     DPTR
        INC     DPTR
        INC     DPTR
        INC     DPTR
        MOVX    A,@DPTR
        ADD     A,R0
        MOV     R2,A
        INC     DPTR
        MOVX    A,@DPTR
        ADDC    A,R1
        MOV     DPL,R2
        MOV     DPH,A
        MOVX    A,@DPTR
        CLR     C
        SUBB    A,#0x1
        JC      ??memb_free_4
        MOV     DPL,R6
        MOV     DPH,R7
        INC     DPTR
        INC     DPTR
        INC     DPTR
        INC     DPTR
        MOVX    A,@DPTR
        ADD     A,R0
        MOV     R2,A
        INC     DPTR
        MOVX    A,@DPTR
        ADDC    A,R1
        MOV     DPL,R2
        MOV     DPH,A
        MOVX    A,@DPTR
        ADD     A,#-0x1
        MOVX    @DPTR,A
??memb_free_4:
        MOV     DPL,R6
        MOV     DPH,R7
        INC     DPTR
        INC     DPTR
        INC     DPTR
        INC     DPTR
        MOVX    A,@DPTR
        ADD     A,R0
        MOV     R2,A
        INC     DPTR
        MOVX    A,@DPTR
        ADDC    A,R1
        MOV     DPL,R2
        MOV     DPH,A
        MOVX    A,@DPTR
        MOV     R1,A
        SJMP    ??memb_free_5
//   99   }
//  100   return -1;
??memb_free_2:
        MOV     R1,#-0x1
??memb_free_5:
        MOV     R7,#0x2
        LJMP    ?BANKED_LEAVE_XDATA
          CFI EndBlock cfiBlock2
//  101 }
//  102 /*---------------------------------------------------------------------------*/

        RSEG BANKED_CODE:CODE:NOROOT(0)
//  103 int
//  104 memb_inmemb(struct memb *m, void *ptr)
memb_inmemb:
          CFI Block cfiBlock3 Using cfiCommon0
          CFI Function memb_inmemb
        CODE
//  105 {
        MOV     A,#-0xa
        LCALL   ?BANKED_ENTER_XDATA
          CFI DPH0 load(1, XDATA, add(CFA_XSP16, literal(-1)))
          CFI DPL0 load(1, XDATA, add(CFA_XSP16, literal(-2)))
          CFI ?BRET_EXT load(1, XDATA, add(CFA_XSP16, literal(-3)))
          CFI ?RET_HIGH load(1, XDATA, add(CFA_XSP16, literal(-4)))
          CFI ?RET_LOW load(1, XDATA, add(CFA_XSP16, literal(-5)))
          CFI R7 load(1, XDATA, add(CFA_XSP16, literal(-6)))
          CFI V1 load(1, XDATA, add(CFA_XSP16, literal(-7)))
          CFI V0 load(1, XDATA, add(CFA_XSP16, literal(-8)))
          CFI VB load(1, XDATA, add(CFA_XSP16, literal(-9)))
          CFI R6 load(1, XDATA, add(CFA_XSP16, literal(-10)))
          CFI CFA_SP SP+0
          CFI CFA_XSP16 add(XSP16, 10)
        ; Saved register size: 10
        ; Auto size: 0
//  106   return (char *)ptr >= (char *)m->mem &&
//  107     (char *)ptr < (char *)m->mem + (m->num * m->size);
        MOV     DPL,R2
        MOV     DPH,R3
        INC     DPTR
        INC     DPTR
        INC     DPTR
        INC     DPTR
        INC     DPTR
        INC     DPTR
        MOVX    A,@DPTR
        MOV     R0,A
        INC     DPTR
        MOVX    A,@DPTR
        MOV     R1,A
        CLR     C
        MOV     A,R4
        SUBB    A,R0
        MOV     A,R5
        SUBB    A,R1
        JC      ??memb_inmemb_0
        MOV     DPL,R2
        MOV     DPH,R3
        INC     DPTR
        INC     DPTR
        MOVX    A,@DPTR
        MOV     R0,A
        INC     DPTR
        MOVX    A,@DPTR
        MOV     R1,A
        MOV     DPL,R2
        MOV     DPH,R3
        MOVX    A,@DPTR
        MOV     ?V0 + 0,A
        INC     DPTR
        MOVX    A,@DPTR
        MOV     ?V0 + 1,A
        MOV     A,R0
        MOV     B,?V0 + 0
        MUL     AB
        XCH     A,R0
        MOV     R6,B
        MOV     B,?V0 + 1
        MUL     AB
        ADD     A,R6
        MOV     R6,A
        MOV     B,?V0 + 0
        MOV     A,R1
        MUL     AB
        ADD     A,R6
        MOV     R1,A
        MOV     DPL,R2
        MOV     DPH,R3
        INC     DPTR
        INC     DPTR
        INC     DPTR
        INC     DPTR
        INC     DPTR
        INC     DPTR
        MOVX    A,@DPTR
        ADD     A,R0
        MOV     R0,A
        INC     DPTR
        MOVX    A,@DPTR
        ADDC    A,R1
        MOV     R1,A
        CLR     C
        MOV     A,R4
        SUBB    A,R0
        MOV     A,R5
        SUBB    A,R1
        JNC     ??memb_inmemb_0
        SETB    B.0
        SJMP    ??memb_inmemb_1
??memb_inmemb_0:
        CLR     B.0
??memb_inmemb_1:
        MOV     C,B.0
        CLR     A
        RLC     A
        MOV     R2,A
        MOV     R3,#0x0
        MOV     R7,#0x2
        LJMP    ?BANKED_LEAVE_XDATA
          CFI EndBlock cfiBlock3
//  108 }

        RSEG BANK_RELAYS:CODE:REORDER:NOROOT(0)
??memb_init?relay:
        CODE
        LCALL   ?BDISPATCH
        DATA24
        DC24    memb_init

        RSEG BANK_RELAYS:CODE:REORDER:NOROOT(0)
??memb_alloc?relay:
        CODE
        LCALL   ?BDISPATCH
        DATA24
        DC24    memb_alloc

        RSEG BANK_RELAYS:CODE:REORDER:NOROOT(0)
??memb_free?relay:
        CODE
        LCALL   ?BDISPATCH
        DATA24
        DC24    memb_free

        RSEG BANK_RELAYS:CODE:REORDER:NOROOT(0)
??memb_inmemb?relay:
        CODE
        LCALL   ?BDISPATCH
        DATA24
        DC24    memb_inmemb

        END
//  109 /*---------------------------------------------------------------------------*/
//  110 
//  111 /** @} */
// 
// 543 bytes in segment BANKED_CODE
//  24 bytes in segment BANK_RELAYS
// 
// 567 bytes of CODE memory
//
//Errors: none
//Warnings: none
