///////////////////////////////////////////////////////////////////////////////
//                                                                            /
// IAR C/C++ Compiler V8.20.2.41139 for 8051            03/Apr/2014  10:45:54 /
// Copyright 2004-2013 IAR Systems AB.                                        /
//                                                                            /
//    Core               =  plain                                             /
//    Code model         =  banked                                            /
//    Data model         =  large                                             /
//    Calling convention =  xdata reentrant                                   /
//    Constant location  =  data                                              /
//    Dptr setup         =  1,16                                              /
//                                                                            /
//    Source file        =  D:\myWork\myWork\core\net\uip-udp-packet.c        /
//    Command line       =  D:\myWork\myWork\core\net\uip-udp-packet.c -D     /
//                          AUTOSTART_ENABLE -D PROJECT_CONF_H -lC            /
//                          D:\myWork\myWork\examples\wsn2530dk\myProject\coo /
//                          rd\List\ -lA D:\myWork\myWork\examples\wsn2530dk\ /
//                          myProject\coord\List\ --diag_suppress             /
//                          Pa050,Pa082,Pe550 --diag_warning Pe144 -o         /
//                          D:\myWork\myWork\examples\wsn2530dk\myProject\coo /
//                          rd\Obj\ -e --no_cse --no_unroll --no_inline       /
//                          --no_code_motion --no_tbaa --debug --core=plain   /
//                          --dptr=16,1 --data_model=large                    /
//                          --code_model=banked --calling_convention=xdata_re /
//                          entrant --place_constants=data --nr_virtual_regs  /
//                          16 --preinclude D:\myWork\myWork\examples\wsn2530 /
//                          dk\myProject\..\..\..\cpu\cc253x\cc253x.h -I      /
//                          D:\myWork\myWork\examples\wsn2530dk\myProject\..\ /
//                          ..\..\cpu\cc253x\ -I D:\myWork\myWork\examples\ws /
//                          n2530dk\myProject\..\..\..\platform\wsn2530dk\    /
//                          -I D:\myWork\myWork\examples\wsn2530dk\myProject\ /
//                          ..\..\..\core\ -I D:\myWork\myWork\examples\wsn25 /
//                          30dk\myProject\..\..\..\apps\ -I                  /
//                          D:\myWork\myWork\examples\wsn2530dk\myProject\    /
//                          -Ol                                               /
//    List file          =  D:\myWork\myWork\examples\wsn2530dk\myProject\coo /
//                          rd\List\uip-udp-packet.s51                        /
//                                                                            /
//                                                                            /
///////////////////////////////////////////////////////////////////////////////

        NAME `uip-udp-packet`

        RTMODEL "__SystemLibrary", "CLib"
        RTMODEL "__calling_convention", "xdata_reentrant"
        RTMODEL "__code_model", "banked"
        RTMODEL "__core", "plain"
        RTMODEL "__data_model", "large"
        RTMODEL "__dptr_size", "16"
        RTMODEL "__extended_stack", "disabled"
        RTMODEL "__location_for_constants", "data"
        RTMODEL "__number_of_dptrs", "1"
        RTMODEL "__rt_version", "1"

        RSEG DOVERLAY:DATA:NOROOT(0)
        RSEG IOVERLAY:IDATA:NOROOT(0)
        RSEG ISTACK:IDATA:NOROOT(0)
        RSEG PSTACK:XDATA:NOROOT(0)
        RSEG XSTACK:XDATA:NOROOT(0)

        EXTERN ?ALLOC_XSTACK8
        EXTERN ?BANKED_ENTER_XDATA
        EXTERN ?BANKED_LEAVE_XDATA
        EXTERN ?BDISPATCH
        EXTERN ?DEALLOC_XSTACK8
        EXTERN ?PUSH_XSTACK_I_TWO
        EXTERN ?V0
        EXTERN ?XSTACK_DISP0_8

        PUBLIC ??uip_udp_packet_send?relay
        FUNCTION ??uip_udp_packet_send?relay,0203H
        PUBLIC ??uip_udp_packet_sendto?relay
        FUNCTION ??uip_udp_packet_sendto?relay,0203H
        PUBLIC uip_udp_packet_send
        FUNCTION uip_udp_packet_send,021203H
        ARGFRAME XSTACK, 38, STACK
        ARGFRAME IOVERLAY, 0, STATIC
        ARGFRAME DOVERLAY, 0, STATIC
        LOCFRAME XSTACK, 12, STACK
        PUBLIC uip_udp_packet_sendto
        FUNCTION uip_udp_packet_sendto,021203H
        ARGFRAME XSTACK, 6, STACK
        LOCFRAME XSTACK, 38, STACK
        
          CFI Names cfiNames0
          CFI StackFrame CFA_SP SP IDATA
          CFI StackFrame CFA_PSP16 PSP16 XDATA
          CFI StackFrame CFA_XSP16 XSP16 XDATA
          CFI StaticOverlayFrame CFA_IOVERLAY IOVERLAY
          CFI StaticOverlayFrame CFA_DOVERLAY DOVERLAY
          CFI Resource `PSW.CY`:1, `B.BR0`:1, `B.BR1`:1, `B.BR2`:1, `B.BR3`:1
          CFI Resource `B.BR4`:1, `B.BR5`:1, `B.BR6`:1, `B.BR7`:1, `VB.BR8`:1
          CFI Resource `VB.BR9`:1, `VB.BR10`:1, `VB.BR11`:1, `VB.BR12`:1
          CFI Resource `VB.BR13`:1, `VB.BR14`:1, `VB.BR15`:1, VB:8, B:8, A:8
          CFI Resource PSW:8, DPL0:8, DPH0:8, R0:8, R1:8, R2:8, R3:8, R4:8, R5:8
          CFI Resource R6:8, R7:8, V0:8, V1:8, V2:8, V3:8, V4:8, V5:8, V6:8, V7:8
          CFI Resource V8:8, V9:8, V10:8, V11:8, V12:8, V13:8, V14:8, V15:8, SP:8
          CFI Resource PSPH:8, PSPL:8, PSP16:16, XSPH:8, XSPL:8, XSP16:16
          CFI VirtualResource ?RET:24
          CFI Resource ?BRET_EXT:8
          CFI VirtualResource ?RET_HIGH:8, ?RET_LOW:8
          CFI ResourceParts PSP16 PSPH, PSPL
          CFI ResourceParts XSP16 XSPH, XSPL
          CFI ResourceParts ?RET ?BRET_EXT, ?RET_HIGH, ?RET_LOW
          CFI EndNames cfiNames0
        
          CFI Common cfiCommon0 Using cfiNames0
          CFI CodeAlign 1
          CFI DataAlign -1
          CFI ReturnAddress ?RET CODE
          CFI CFA_DOVERLAY Used
          CFI CFA_IOVERLAY Used
          CFI CFA_SP SP+-3
          CFI CFA_PSP16 PSP16+0
          CFI CFA_XSP16 XSP16+0
          CFI `PSW.CY` SameValue
          CFI `B.BR0` SameValue
          CFI `B.BR1` SameValue
          CFI `B.BR2` SameValue
          CFI `B.BR3` SameValue
          CFI `B.BR4` SameValue
          CFI `B.BR5` SameValue
          CFI `B.BR6` SameValue
          CFI `B.BR7` SameValue
          CFI `VB.BR8` SameValue
          CFI `VB.BR9` SameValue
          CFI `VB.BR10` SameValue
          CFI `VB.BR11` SameValue
          CFI `VB.BR12` SameValue
          CFI `VB.BR13` SameValue
          CFI `VB.BR14` SameValue
          CFI `VB.BR15` SameValue
          CFI VB SameValue
          CFI B Undefined
          CFI A Undefined
          CFI PSW SameValue
          CFI DPL0 SameValue
          CFI DPH0 SameValue
          CFI R0 Undefined
          CFI R1 Undefined
          CFI R2 Undefined
          CFI R3 Undefined
          CFI R4 Undefined
          CFI R5 Undefined
          CFI R6 SameValue
          CFI R7 SameValue
          CFI V0 SameValue
          CFI V1 SameValue
          CFI V2 SameValue
          CFI V3 SameValue
          CFI V4 SameValue
          CFI V5 SameValue
          CFI V6 SameValue
          CFI V7 SameValue
          CFI V8 SameValue
          CFI V9 SameValue
          CFI V10 SameValue
          CFI V11 SameValue
          CFI V12 SameValue
          CFI V13 SameValue
          CFI V14 SameValue
          CFI V15 SameValue
          CFI PSPH Undefined
          CFI PSPL Undefined
          CFI XSPH Undefined
          CFI XSPL Undefined
          CFI ?RET Concat
          CFI ?BRET_EXT Frame(CFA_SP, 3)
          CFI ?RET_HIGH Frame(CFA_SP, 2)
          CFI ?RET_LOW Frame(CFA_SP, 1)
          CFI EndCommon cfiCommon0
        
memcpy              SYMBOL "memcpy"
??memcpy?relay      SYMBOL "?relay", memcpy
tcpip_ipv6_output   SYMBOL "tcpip_ipv6_output"
??tcpip_ipv6_output?relay SYMBOL "?relay", tcpip_ipv6_output
uip_process         SYMBOL "uip_process"
??uip_process?relay SYMBOL "?relay", uip_process
uip_udp_packet_send SYMBOL "uip_udp_packet_send"
??uip_udp_packet_send?relay SYMBOL "?relay", uip_udp_packet_send
uip_udp_packet_sendto SYMBOL "uip_udp_packet_sendto"
??uip_udp_packet_sendto?relay SYMBOL "?relay", uip_udp_packet_sendto

        EXTERN ??memcpy?relay
        FUNCTION ??memcpy?relay,00H
        EXTERN ??tcpip_ipv6_output?relay
        FUNCTION ??tcpip_ipv6_output?relay,00H
        EXTERN ??uip_process?relay
        FUNCTION ??uip_process?relay,00H
        EXTERN memcpy
        FUNCTION memcpy,010202H
        ARGFRAME ISTACK, 0, STACK
        ARGFRAME PSTACK, 0, STACK
        ARGFRAME XSTACK, 38, STACK
        ARGFRAME IOVERLAY, 0, STATIC
        ARGFRAME DOVERLAY, 0, STATIC
        EXTERN tcpip_ipv6_output
        FUNCTION tcpip_ipv6_output,0202H
        ARGFRAME ISTACK, 0, STACK
        ARGFRAME PSTACK, 0, STACK
        ARGFRAME XSTACK, 10, STACK
        ARGFRAME IOVERLAY, 0, STATIC
        ARGFRAME DOVERLAY, 0, STATIC
        EXTERN uip_aligned_buf
        EXTERN uip_process
        FUNCTION uip_process,0202H
        ARGFRAME ISTACK, 0, STACK
        ARGFRAME PSTACK, 0, STACK
        ARGFRAME XSTACK, 10, STACK
        ARGFRAME IOVERLAY, 0, STATIC
        ARGFRAME DOVERLAY, 0, STATIC
        EXTERN uip_slen
        EXTERN uip_udp_conn

// D:\myWork\myWork\core\net\uip-udp-packet.c
//    1 /*
//    2  * Copyright (c) 2006, Swedish Institute of Computer Science.
//    3  * All rights reserved.
//    4  *
//    5  * Redistribution and use in source and binary forms, with or without
//    6  * modification, are permitted provided that the following conditions
//    7  * are met:
//    8  * 1. Redistributions of source code must retain the above copyright
//    9  *    notice, this list of conditions and the following disclaimer.
//   10  * 2. Redistributions in binary form must reproduce the above copyright
//   11  *    notice, this list of conditions and the following disclaimer in the
//   12  *    documentation and/or other materials provided with the distribution.
//   13  * 3. Neither the name of the Institute nor the names of its contributors
//   14  *    may be used to endorse or promote products derived from this software
//   15  *    without specific prior written permission.
//   16  *
//   17  * THIS SOFTWARE IS PROVIDED BY THE INSTITUTE AND CONTRIBUTORS ``AS IS'' AND
//   18  * ANY EXPRESS OR IMPLIED WARRANTIES, INCLUDING, BUT NOT LIMITED TO, THE
//   19  * IMPLIED WARRANTIES OF MERCHANTABILITY AND FITNESS FOR A PARTICULAR PURPOSE
//   20  * ARE DISCLAIMED.  IN NO EVENT SHALL THE INSTITUTE OR CONTRIBUTORS BE LIABLE
//   21  * FOR ANY DIRECT, INDIRECT, INCIDENTAL, SPECIAL, EXEMPLARY, OR CONSEQUENTIAL
//   22  * DAMAGES (INCLUDING, BUT NOT LIMITED TO, PROCUREMENT OF SUBSTITUTE GOODS
//   23  * OR SERVICES; LOSS OF USE, DATA, OR PROFITS; OR BUSINESS INTERRUPTION)
//   24  * HOWEVER CAUSED AND ON ANY THEORY OF LIABILITY, WHETHER IN CONTRACT, STRICT
//   25  * LIABILITY, OR TORT (INCLUDING NEGLIGENCE OR OTHERWISE) ARISING IN ANY WAY
//   26  * OUT OF THE USE OF THIS SOFTWARE, EVEN IF ADVISED OF THE POSSIBILITY OF
//   27  * SUCH DAMAGE.
//   28  *
//   29  * This file is part of the Contiki operating system.
//   30  *
//   31  */
//   32 
//   33 /**
//   34  * \file
//   35  *         Module for sending UDP packets through uIP.
//   36  * \author
//   37  *         Adam Dunkels <adam@sics.se>
//   38  */
//   39 
//   40 #include "contiki-conf.h"
//   41 
//   42 extern uint16_t uip_slen;
//   43 
//   44 #include "net/uip-udp-packet.h"
//   45 
//   46 #include <string.h>
//   47 
//   48 /*---------------------------------------------------------------------------*/

        RSEG BANKED_CODE:CODE:NOROOT(0)
//   49 void
//   50 uip_udp_packet_send(struct uip_udp_conn *c, const void *data, int len)
uip_udp_packet_send:
          CFI Block cfiBlock0 Using cfiCommon0
          CFI Function uip_udp_packet_send
        CODE
//   51 {
        FUNCALL uip_udp_packet_send, memcpy
        LOCFRAME ISTACK, 0, STACK
        LOCFRAME PSTACK, 0, STACK
        LOCFRAME XSTACK, 12, STACK
        LOCFRAME IOVERLAY, 0, STATIC
        LOCFRAME DOVERLAY, 0, STATIC
        ARGFRAME ISTACK, 0, STACK
        ARGFRAME PSTACK, 0, STACK
        ARGFRAME XSTACK, 12, STACK
        ARGFRAME IOVERLAY, 0, STATIC
        ARGFRAME DOVERLAY, 0, STATIC
        FUNCALL uip_udp_packet_send, uip_process
        LOCFRAME ISTACK, 0, STACK
        LOCFRAME PSTACK, 0, STACK
        LOCFRAME XSTACK, 10, STACK
        LOCFRAME IOVERLAY, 0, STATIC
        LOCFRAME DOVERLAY, 0, STATIC
        ARGFRAME ISTACK, 0, STACK
        ARGFRAME PSTACK, 0, STACK
        ARGFRAME XSTACK, 10, STACK
        ARGFRAME IOVERLAY, 0, STATIC
        ARGFRAME DOVERLAY, 0, STATIC
        FUNCALL uip_udp_packet_send, tcpip_ipv6_output
        LOCFRAME ISTACK, 0, STACK
        LOCFRAME PSTACK, 0, STACK
        LOCFRAME XSTACK, 10, STACK
        LOCFRAME IOVERLAY, 0, STATIC
        LOCFRAME DOVERLAY, 0, STATIC
        ARGFRAME ISTACK, 0, STACK
        ARGFRAME PSTACK, 0, STACK
        ARGFRAME XSTACK, 10, STACK
        ARGFRAME IOVERLAY, 0, STATIC
        ARGFRAME DOVERLAY, 0, STATIC
        MOV     A,#-0xa
        LCALL   ?BANKED_ENTER_XDATA
          CFI DPH0 load(1, XDATA, add(CFA_XSP16, literal(-1)))
          CFI DPL0 load(1, XDATA, add(CFA_XSP16, literal(-2)))
          CFI ?BRET_EXT load(1, XDATA, add(CFA_XSP16, literal(-3)))
          CFI ?RET_HIGH load(1, XDATA, add(CFA_XSP16, literal(-4)))
          CFI ?RET_LOW load(1, XDATA, add(CFA_XSP16, literal(-5)))
          CFI R7 load(1, XDATA, add(CFA_XSP16, literal(-6)))
          CFI V1 load(1, XDATA, add(CFA_XSP16, literal(-7)))
          CFI V0 load(1, XDATA, add(CFA_XSP16, literal(-8)))
          CFI VB load(1, XDATA, add(CFA_XSP16, literal(-9)))
          CFI R6 load(1, XDATA, add(CFA_XSP16, literal(-10)))
          CFI CFA_SP SP+0
          CFI CFA_XSP16 add(XSP16, 10)
        ; Saved register size: 10
        ; Auto size: 0
//   52 #if UIP_UDP
//   53   if(data != NULL) {
        MOV     A,R4
        ORL     A,R5
        JZ      ??uip_udp_packet_send_0
//   54     uip_udp_conn = c;
        MOV     DPTR,#uip_udp_conn
        MOV     A,R2
        MOVX    @DPTR,A
        INC     DPTR
        MOV     A,R3
        MOVX    @DPTR,A
        MOV     A,#0xa
        LCALL   ?XSTACK_DISP0_8
        MOVX    A,@DPTR
        MOV     R0,A
        INC     DPTR
        MOVX    A,@DPTR
        MOV     R1,A
//   55     uip_slen = len;
        MOV     DPTR,#uip_slen
        MOV     A,R0
        MOVX    @DPTR,A
        INC     DPTR
        MOV     A,R1
        MOVX    @DPTR,A
//   56     memcpy(&uip_buf[UIP_LLH_LEN + UIP_IPUDPH_LEN], data,
//   57            len > UIP_BUFSIZE - UIP_LLH_LEN - UIP_IPUDPH_LEN?
//   58            UIP_BUFSIZE - UIP_LLH_LEN - UIP_IPUDPH_LEN: len);
        CLR     C
        MOV     A,R0
        SUBB    A,#-0x3f
        MOV     A,R1
        SUBB    A,#0x0
        MOV     C,0xD0 /* PSW */.2
        XRL     A,PSW
        RLC     A
        JC      ??uip_udp_packet_send_1
        MOV     ?V0 + 0,#-0x40
        MOV     ?V0 + 1,#0x0
        SJMP    ??uip_udp_packet_send_2
??uip_udp_packet_send_1:
        MOV     ?V0 + 0,R0
        MOV     ?V0 + 1,R1
??uip_udp_packet_send_2:
        ; Setup parameters for call to function memcpy
        MOV     R0,#?V0 + 0
        LCALL   ?PUSH_XSTACK_I_TWO
          CFI CFA_XSP16 add(XSP16, 12)
        MOV     R2,#(uip_aligned_buf + 48) & 0xff
        MOV     R3,#((uip_aligned_buf + 48) >> 8) & 0xff
        LCALL   ??memcpy?relay
        MOV     A,#0x2
        LCALL   ?DEALLOC_XSTACK8
          CFI CFA_XSP16 add(XSP16, 10)
//   59     uip_process(UIP_UDP_SEND_CONN);
        ; Setup parameters for call to function uip_process
        MOV     R1,#0x4
        LCALL   ??uip_process?relay
//   60 #if UIP_CONF_IPV6
//   61     tcpip_ipv6_output();
        ; Setup parameters for call to function tcpip_ipv6_output
        LCALL   ??tcpip_ipv6_output?relay
//   62 #else
//   63     if(uip_len > 0) {
//   64       tcpip_output();
//   65     }
//   66 #endif
//   67   }
//   68   uip_slen = 0;
??uip_udp_packet_send_0:
        MOV     DPTR,#uip_slen
        MOV     A,#0x0
        MOVX    @DPTR,A
        INC     DPTR
        MOV     A,#0x0
        MOVX    @DPTR,A
//   69 #endif /* UIP_UDP */
//   70 }
        MOV     R7,#0x2
        LJMP    ?BANKED_LEAVE_XDATA
          CFI EndBlock cfiBlock0
//   71 /*---------------------------------------------------------------------------*/

        RSEG BANKED_CODE:CODE:NOROOT(0)
//   72 void
//   73 uip_udp_packet_sendto(struct uip_udp_conn *c, const void *data, int len,
uip_udp_packet_sendto:
          CFI Block cfiBlock1 Using cfiCommon0
          CFI Function uip_udp_packet_sendto
        CODE
//   74 		      const uip_ipaddr_t *toaddr, uint16_t toport)
//   75 {
        FUNCALL uip_udp_packet_sendto, memcpy
        LOCFRAME ISTACK, 0, STACK
        LOCFRAME PSTACK, 0, STACK
        LOCFRAME XSTACK, 38, STACK
        LOCFRAME IOVERLAY, 0, STATIC
        LOCFRAME DOVERLAY, 0, STATIC
        ARGFRAME ISTACK, 0, STACK
        ARGFRAME PSTACK, 0, STACK
        ARGFRAME XSTACK, 38, STACK
        ARGFRAME IOVERLAY, 0, STATIC
        ARGFRAME DOVERLAY, 0, STATIC
        FUNCALL uip_udp_packet_sendto, memcpy
        LOCFRAME ISTACK, 0, STACK
        LOCFRAME PSTACK, 0, STACK
        LOCFRAME XSTACK, 38, STACK
        LOCFRAME IOVERLAY, 0, STATIC
        LOCFRAME DOVERLAY, 0, STATIC
        ARGFRAME ISTACK, 0, STACK
        ARGFRAME PSTACK, 0, STACK
        ARGFRAME XSTACK, 38, STACK
        ARGFRAME IOVERLAY, 0, STATIC
        ARGFRAME DOVERLAY, 0, STATIC
        FUNCALL uip_udp_packet_sendto, uip_udp_packet_send
        LOCFRAME ISTACK, 0, STACK
        LOCFRAME PSTACK, 0, STACK
        LOCFRAME XSTACK, 38, STACK
        LOCFRAME IOVERLAY, 0, STATIC
        LOCFRAME DOVERLAY, 0, STATIC
        ARGFRAME ISTACK, 0, STACK
        ARGFRAME PSTACK, 0, STACK
        ARGFRAME XSTACK, 38, STACK
        ARGFRAME IOVERLAY, 0, STATIC
        ARGFRAME DOVERLAY, 0, STATIC
        FUNCALL uip_udp_packet_sendto, memcpy
        LOCFRAME ISTACK, 0, STACK
        LOCFRAME PSTACK, 0, STACK
        LOCFRAME XSTACK, 38, STACK
        LOCFRAME IOVERLAY, 0, STATIC
        LOCFRAME DOVERLAY, 0, STATIC
        ARGFRAME ISTACK, 0, STACK
        ARGFRAME PSTACK, 0, STACK
        ARGFRAME XSTACK, 38, STACK
        ARGFRAME IOVERLAY, 0, STATIC
        ARGFRAME DOVERLAY, 0, STATIC
        MOV     A,#-0x14
        LCALL   ?BANKED_ENTER_XDATA
          CFI DPH0 load(1, XDATA, add(CFA_XSP16, literal(-1)))
          CFI DPL0 load(1, XDATA, add(CFA_XSP16, literal(-2)))
          CFI ?BRET_EXT load(1, XDATA, add(CFA_XSP16, literal(-3)))
          CFI ?RET_HIGH load(1, XDATA, add(CFA_XSP16, literal(-4)))
          CFI ?RET_LOW load(1, XDATA, add(CFA_XSP16, literal(-5)))
          CFI R7 load(1, XDATA, add(CFA_XSP16, literal(-6)))
          CFI V11 load(1, XDATA, add(CFA_XSP16, literal(-7)))
          CFI V10 load(1, XDATA, add(CFA_XSP16, literal(-8)))
          CFI V9 load(1, XDATA, add(CFA_XSP16, literal(-9)))
          CFI V8 load(1, XDATA, add(CFA_XSP16, literal(-10)))
          CFI V7 load(1, XDATA, add(CFA_XSP16, literal(-11)))
          CFI V6 load(1, XDATA, add(CFA_XSP16, literal(-12)))
          CFI V5 load(1, XDATA, add(CFA_XSP16, literal(-13)))
          CFI V4 load(1, XDATA, add(CFA_XSP16, literal(-14)))
          CFI V3 load(1, XDATA, add(CFA_XSP16, literal(-15)))
          CFI V2 load(1, XDATA, add(CFA_XSP16, literal(-16)))
          CFI V1 load(1, XDATA, add(CFA_XSP16, literal(-17)))
          CFI V0 load(1, XDATA, add(CFA_XSP16, literal(-18)))
          CFI VB load(1, XDATA, add(CFA_XSP16, literal(-19)))
          CFI R6 load(1, XDATA, add(CFA_XSP16, literal(-20)))
          CFI CFA_SP SP+0
          CFI CFA_XSP16 add(XSP16, 20)
        ; Saved register size: 20
        ; Auto size: 16
        MOV     A,#-0x10
        LCALL   ?ALLOC_XSTACK8
          CFI CFA_XSP16 add(XSP16, 36)
        MOV     A,R2
        MOV     R6,A
        MOV     A,R3
        MOV     R7,A
        MOV     ?V0 + 6,R4
        MOV     ?V0 + 7,R5
        MOV     A,#0x24
        LCALL   ?XSTACK_DISP0_8
        MOVX    A,@DPTR
        MOV     ?V0 + 8,A
        INC     DPTR
        MOVX    A,@DPTR
        MOV     ?V0 + 9,A
        MOV     A,#0x28
        LCALL   ?XSTACK_DISP0_8
        MOVX    A,@DPTR
        MOV     ?V0 + 2,A
        INC     DPTR
        MOVX    A,@DPTR
        MOV     ?V0 + 3,A
        MOV     A,#0x26
        LCALL   ?XSTACK_DISP0_8
        MOVX    A,@DPTR
        MOV     ?V0 + 0,A
        INC     DPTR
        MOVX    A,@DPTR
        MOV     ?V0 + 1,A
//   76   uip_ipaddr_t curaddr;
//   77   uint16_t curport;
//   78 
//   79   if(toaddr != NULL) {
        MOV     A,?V0 + 0
        ORL     A,?V0 + 1
        JNZ     $+5
        LJMP    ??uip_udp_packet_sendto_0 & 0xFFFF
//   80     /* Save current IP addr/port. */
//   81     uip_ipaddr_copy(&curaddr, &c->ripaddr);
        ; Setup parameters for call to function memcpy
        MOV     ?V0 + 4,#0x10
        MOV     ?V0 + 5,#0x0
        MOV     R0,#?V0 + 4
        LCALL   ?PUSH_XSTACK_I_TWO
          CFI CFA_XSP16 add(XSP16, 38)
        MOV     A,R6
        MOV     R4,A
        MOV     A,R7
        MOV     R5,A
        MOV     A,#0x2
        LCALL   ?XSTACK_DISP0_8
        MOV     R2,DPL
        MOV     R3,DPH
        LCALL   ??memcpy?relay
        MOV     A,#0x2
        LCALL   ?DEALLOC_XSTACK8
          CFI CFA_XSP16 add(XSP16, 36)
//   82     curport = c->rport;
        MOV     A,R6
        ADD     A,#0x12
        MOV     DPL,A
        MOV     A,R7
        ADDC    A,#0x0
        MOV     DPH,A
        MOVX    A,@DPTR
        MOV     ?V0 + 4,A
        INC     DPTR
        MOVX    A,@DPTR
        MOV     ?V0 + 5,A
//   83 
//   84     /* Load new IP addr/port */
//   85     uip_ipaddr_copy(&c->ripaddr, toaddr);
        ; Setup parameters for call to function memcpy
        MOV     ?V0 + 10,#0x10
        MOV     ?V0 + 11,#0x0
        MOV     R0,#?V0 + 10
        LCALL   ?PUSH_XSTACK_I_TWO
          CFI CFA_XSP16 add(XSP16, 38)
        MOV     R4,?V0 + 0
        MOV     R5,?V0 + 1
        MOV     A,R6
        MOV     R2,A
        MOV     A,R7
        MOV     R3,A
        LCALL   ??memcpy?relay
        MOV     A,#0x2
        LCALL   ?DEALLOC_XSTACK8
          CFI CFA_XSP16 add(XSP16, 36)
//   86     c->rport = toport;
        MOV     A,R6
        ADD     A,#0x12
        MOV     DPL,A
        MOV     A,R7
        ADDC    A,#0x0
        MOV     DPH,A
        MOV     A,?V0 + 2
        MOVX    @DPTR,A
        INC     DPTR
        MOV     A,?V0 + 3
        MOVX    @DPTR,A
//   87 
//   88     uip_udp_packet_send(c, data, len);
        ; Setup parameters for call to function uip_udp_packet_send
        MOV     R0,#?V0 + 8
        LCALL   ?PUSH_XSTACK_I_TWO
          CFI CFA_XSP16 add(XSP16, 38)
        MOV     R4,?V0 + 6
        MOV     R5,?V0 + 7
        MOV     A,R6
        MOV     R2,A
        MOV     A,R7
        MOV     R3,A
        LCALL   ??uip_udp_packet_send?relay
        MOV     A,#0x2
        LCALL   ?DEALLOC_XSTACK8
          CFI CFA_XSP16 add(XSP16, 36)
//   89 
//   90     /* Restore old IP addr/port */
//   91     uip_ipaddr_copy(&c->ripaddr, &curaddr);
        ; Setup parameters for call to function memcpy
        MOV     ?V0 + 0,#0x10
        MOV     ?V0 + 1,#0x0
        MOV     R0,#?V0 + 0
        LCALL   ?PUSH_XSTACK_I_TWO
          CFI CFA_XSP16 add(XSP16, 38)
        MOV     A,#0x2
        LCALL   ?XSTACK_DISP0_8
        MOV     R4,DPL
        MOV     R5,DPH
        MOV     A,R6
        MOV     R2,A
        MOV     A,R7
        MOV     R3,A
        LCALL   ??memcpy?relay
        MOV     A,#0x2
        LCALL   ?DEALLOC_XSTACK8
          CFI CFA_XSP16 add(XSP16, 36)
//   92     c->rport = curport;
        MOV     A,R6
        ADD     A,#0x12
        MOV     DPL,A
        MOV     A,R7
        ADDC    A,#0x0
        MOV     DPH,A
        MOV     A,?V0 + 4
        MOVX    @DPTR,A
        INC     DPTR
        MOV     A,?V0 + 5
        MOVX    @DPTR,A
//   93   }
//   94 }
??uip_udp_packet_sendto_0:
        MOV     A,#0x10
        LCALL   ?DEALLOC_XSTACK8
          CFI CFA_XSP16 add(XSP16, 20)
        MOV     R7,#0xc
        LJMP    ?BANKED_LEAVE_XDATA
          CFI EndBlock cfiBlock1

        RSEG BANK_RELAYS:CODE:REORDER:NOROOT(0)
??uip_udp_packet_send?relay:
        CODE
        LCALL   ?BDISPATCH
        DATA24
        DC24    uip_udp_packet_send

        RSEG BANK_RELAYS:CODE:REORDER:NOROOT(0)
??uip_udp_packet_sendto?relay:
        CODE
        LCALL   ?BDISPATCH
        DATA24
        DC24    uip_udp_packet_sendto

        END
//   95 /*---------------------------------------------------------------------------*/
// 
// 337 bytes in segment BANKED_CODE
//  12 bytes in segment BANK_RELAYS
// 
// 349 bytes of CODE memory
//
//Errors: none
//Warnings: none
